target datalayout = "e-m:e-p270:32:32-p271:32:32-p272:64:64-i64:64-i128:128-f80:128-n8:16:32:64-S128"
target triple = "x86_64-pc-linux-gnu"

%struct.strbuf = type { i64, i64, ptr }

@strbuf_slopbuf = external global [0 x i8], align 1
@.str.121 = private unnamed_addr constant [20 x i8] c"could not read '%s'\00", align 1
@.str.122 = private unnamed_addr constant [11 x i8] c"./strbuf.h\00", align 1
@.str.123 = private unnamed_addr constant [30 x i8] c"strbuf_setlen() beyond buffer\00", align 1

; Function Attrs: inlinehint nounwind uwtable
define internal void @strbuf_setlen(ptr noundef %0, i64 noundef %1) #5 {
  %3 = alloca ptr, align 8
  %4 = alloca i64, align 8
  store ptr %0, ptr %3, align 8, !tbaa !98
  store i64 %1, ptr %4, align 8, !tbaa !103
  %5 = load i64, ptr %4, align 8, !tbaa !103
  %6 = load ptr, ptr %3, align 8, !tbaa !98
  %7 = getelementptr inbounds nuw %struct.strbuf, ptr %6, i32 0, i32 0
  %8 = load i64, ptr %7, align 8, !tbaa !104
  %9 = icmp ne i64 %8, 0
  br i1 %9, label %10, label %15

10:                                               ; preds = %2
  %11 = load ptr, ptr %3, align 8, !tbaa !98
  %12 = getelementptr inbounds nuw %struct.strbuf, ptr %11, i32 0, i32 0
  %13 = load i64, ptr %12, align 8, !tbaa !104
  %14 = sub i64 %13, 1
  br label %16

15:                                               ; preds = %2
  br label %16

16:                                               ; preds = %15, %10
  %17 = phi i64 [ %14, %10 ], [ 0, %15 ]
  %18 = icmp ugt i64 %5, %17
  br i1 %18, label %19, label %20

19:                                               ; preds = %16
  call void (ptr, i32, ptr, ...) @BUG_fl(ptr noundef @.str.122, i32 noundef 167, ptr noundef @.str.123) #15
  unreachable

20:                                               ; preds = %16
  %21 = load i64, ptr %4, align 8, !tbaa !103
  %22 = load ptr, ptr %3, align 8, !tbaa !98
  %23 = getelementptr inbounds nuw %struct.strbuf, ptr %22, i32 0, i32 1
  store i64 %21, ptr %23, align 8, !tbaa !97
  %24 = load ptr, ptr %3, align 8, !tbaa !98
  %25 = getelementptr inbounds nuw %struct.strbuf, ptr %24, i32 0, i32 2
  %26 = load ptr, ptr %25, align 8, !tbaa !57
  %27 = icmp ne ptr %26, @strbuf_slopbuf
  br i1 %27, label %28, label %34

28:                                               ; preds = %20
  %29 = load ptr, ptr %3, align 8, !tbaa !98
  %30 = getelementptr inbounds nuw %struct.strbuf, ptr %29, i32 0, i32 2
  %31 = load ptr, ptr %30, align 8, !tbaa !57
  %32 = load i64, ptr %4, align 8, !tbaa !103
  %33 = getelementptr inbounds nuw i8, ptr %31, i64 %32
  store i8 0, ptr %33, align 1, !tbaa !84
  br label %35

34:                                               ; preds = %20
  br label %35

35:                                               ; preds = %34, %28
  ret void
}

; Function Attrs: nounwind uwtable
define internal i32 @read_state_file(ptr noundef %0, ptr noundef %1, ptr noundef %2, i32 noundef %3) #0 {
  %5 = alloca i32, align 4
  %6 = alloca ptr, align 8
  %7 = alloca ptr, align 8
  %8 = alloca ptr, align 8
  %9 = alloca i32, align 4
  store ptr %0, ptr %6, align 8, !tbaa !98
  store ptr %1, ptr %7, align 8, !tbaa !47
  store ptr %2, ptr %8, align 8, !tbaa !11
  store i32 %3, ptr %9, align 4, !tbaa !4
  %10 = load ptr, ptr %6, align 8, !tbaa !98
  call void @strbuf_setlen(ptr noundef %10, i64 noundef 0)
  %11 = load ptr, ptr %6, align 8, !tbaa !98
  %12 = load ptr, ptr %7, align 8, !tbaa !47
  %13 = load ptr, ptr %8, align 8, !tbaa !11
  %14 = call ptr @am_path(ptr noundef %12, ptr noundef %13)
  %15 = call i64 @strbuf_read_file(ptr noundef %11, ptr noundef %14, i64 noundef 0)
  %16 = icmp sge i64 %15, 0
  br i1 %16, label %17, label %27

17:                                               ; preds = %4
  %18 = load i32, ptr %9, align 4, !tbaa !4
  %19 = icmp ne i32 %18, 0
  br i1 %19, label %20, label %22

20:                                               ; preds = %17
  %21 = load ptr, ptr %6, align 8, !tbaa !98
  call void @strbuf_trim(ptr noundef %21)
  br label %22

22:                                               ; preds = %20, %17
  %23 = load ptr, ptr %6, align 8, !tbaa !98
  %24 = getelementptr inbounds nuw %struct.strbuf, ptr %23, i32 0, i32 1
  %25 = load i64, ptr %24, align 8, !tbaa !97
  %26 = trunc i64 %25 to i32
  store i32 %26, ptr %5, align 4
  br label %37

27:                                               ; preds = %4
  %28 = call ptr @__errno_location() #18
  %29 = load i32, ptr %28, align 4, !tbaa !4
  %30 = icmp eq i32 %29, 2
  br i1 %30, label %31, label %32

31:                                               ; preds = %27
  store i32 -1, ptr %5, align 4
  br label %37

32:                                               ; preds = %27
  %33 = call ptr @_(ptr noundef @.str.121)
  %34 = load ptr, ptr %7, align 8, !tbaa !47
  %35 = load ptr, ptr %8, align 8, !tbaa !11
  %36 = call ptr @am_path(ptr noundef %34, ptr noundef %35)
  call void (ptr, ...) @die_errno(ptr noundef %33, ptr noundef %36) #15
  unreachable

37:                                               ; preds = %31, %22
  %38 = load i32, ptr %5, align 4
  ret i32 %38
}