; Function Attrs: nounwind uwtable
define internal fastcc i32 @read_state_file(ptr noundef nonnull initializes((8, 16)) %0, ptr noundef nonnull readonly captures(none) %1, ptr noundef %2, i32 noundef range(i32 0, 2) %3) unnamed_addr #0 {
  %5 = getelementptr inbounds nuw i8, ptr %0, i64 8
  store i64 0, ptr %5, align 8, !tbaa !53
  %6 = getelementptr inbounds nuw i8, ptr %0, i64 16
  %7 = load ptr, ptr %6, align 8, !tbaa !51
  %.not9.i = icmp eq ptr %7, @strbuf_slopbuf
  br i1 %.not9.i, label %strbuf_setlen.exit, label %8

8:                                                ; preds = %4
  store i8 0, ptr %7, align 1, !tbaa !47
  br label %strbuf_setlen.exit

strbuf_setlen.exit:                               ; preds = %4, %8
  %.val9 = load ptr, ptr %1, align 8, !tbaa !23
  %9 = tail call ptr (ptr, ...) @mkpath(ptr noundef nonnull @.str.83, ptr noundef %.val9, ptr noundef %2) #21
  %10 = tail call i64 @strbuf_read_file(ptr noundef nonnull %0, ptr noundef %9, i64 noundef 0) #21
  %11 = icmp sgt i64 %10, -1
  br i1 %11, label %12, label %17

12:                                               ; preds = %strbuf_setlen.exit
  %.not = icmp eq i32 %3, 0
  br i1 %.not, label %14, label %13

13:                                               ; preds = %12
  tail call void @strbuf_trim(ptr noundef nonnull %0) #21
  br label %14

14:                                               ; preds = %13, %12
  %15 = load i64, ptr %5, align 8, !tbaa !53
  %16 = trunc i64 %15 to i32
  br label %24

17:                                               ; preds = %strbuf_setlen.exit
  %18 = tail call ptr @__errno_location() #24
  %19 = load i32, ptr %18, align 4, !tbaa !4
  %20 = icmp eq i32 %19, 2
  br i1 %20, label %24, label %21

21:                                               ; preds = %17
  %22 = tail call fastcc ptr @_(ptr noundef nonnull @.str.121)
  %.val = load ptr, ptr %1, align 8, !tbaa !23
  %23 = tail call fastcc ptr @am_path(ptr %.val, ptr noundef %2)
  tail call void (ptr, ...) @die_errno(ptr noundef %22, ptr noundef %23) #22
  unreachable

24:                                               ; preds = %17, %14
  %.0 = phi i32 [ %16, %14 ], [ -1, %17 ]
  ret i32 %.0
}